; Function Attrs: mustprogress nounwind uwtable
define dso_local void @_ZNSt3__112strstreambufC2EPKal(ptr noundef nonnull align 8 dereferenceable(96) initializes((0, 8)) %0, ptr noundef %1, i64 noundef %2) unnamed_addr #0 align 2 personality ptr @__gxx_personality_v0 {
  store ptr getelementptr inbounds nuw inrange(-16, 112) (i8, ptr @_ZTVNSt3__115basic_streambufIcNS_11char_traitsIcEEEE, i64 16), ptr %0, align 8, !tbaa !4
  %4 = getelementptr inbounds nuw i8, ptr %0, i64 8
  tail call void @_ZNSt3__16localeC1Ev(ptr noundef nonnull align 8 dereferenceable(8) %4) #18
  %5 = getelementptr inbounds nuw i8, ptr %0, i64 16
  tail call void @llvm.memset.p0.i64(ptr noundef nonnull align 8 dereferenceable(48) %5, i8 0, i64 48, i1 false)
  store ptr getelementptr inbounds nuw inrange(-16, 112) (i8, ptr @_ZTVNSt3__112strstreambufE, i64 16), ptr %0, align 8, !tbaa !4
  %6 = getelementptr inbounds nuw i8, ptr %0, i64 64
  store i32 2, ptr %6, align 8, !tbaa !7
  %7 = getelementptr inbounds nuw i8, ptr %0, i64 72
  store i64 4096, ptr %7, align 8, !tbaa !17
  %8 = getelementptr inbounds nuw i8, ptr %0, i64 80
  %9 = icmp eq i64 %2, 0
  tail call void @llvm.memset.p0.i64(ptr noundef nonnull align 8 dereferenceable(16) %8, i8 0, i64 16, i1 false)
  br i1 %9, label %10, label %12

10:                                               ; preds = %3
  %11 = tail call i64 @strlen(ptr noundef nonnull dereferenceable(1) %1) #19
  br label %14

12:                                               ; preds = %3
  %13 = icmp slt i64 %2, 0
  %spec.store.select.i = select i1 %13, i64 2147483647, i64 %2
  br label %14

14:                                               ; preds = %12, %10
  %.0.i = phi i64 [ %11, %10 ], [ %spec.store.select.i, %12 ]
  %15 = getelementptr inbounds i8, ptr %1, i64 %.0.i
  store ptr %1, ptr %5, align 8, !tbaa !23
  %16 = getelementptr inbounds nuw i8, ptr %0, i64 24
  store ptr %1, ptr %16, align 8, !tbaa !24
  %17 = getelementptr inbounds nuw i8, ptr %0, i64 32
  store ptr %15, ptr %17, align 8, !tbaa !25
  ret void
}